target datalayout = "e-m:e-p270:32:32-p271:32:32-p272:64:64-i64:64-i128:128-f80:128-n8:16:32:64-S128"
target triple = "x86_64-pc-linux-gnu"

%struct._object = type { %union.anon, ptr }
%union.anon = type { i64 }
%struct.PyInterpreterConfig = type { i32, i32, i32, i32, i32, i32, i32 }
%struct.PyDictObject = type { %struct._object, i64, i64, ptr, ptr }
%struct.anon = type { i32, i32 }

@.str.20 = private unnamed_addr constant [28 x i8] c"|s:_interpreters.new_config\00", align 1
@.str.21 = private unnamed_addr constant [1 x i8] zeroinitializer, align 1
@.str.22 = private unnamed_addr constant [8 x i8] c"default\00", align 1
@.str.23 = private unnamed_addr constant [9 x i8] c"isolated\00", align 1
@.str.24 = private unnamed_addr constant [7 x i8] c"legacy\00", align 1
@.str.25 = private unnamed_addr constant [6 x i8] c"empty\00", align 1
@PyExc_ValueError = external global ptr, align 8
@.str.26 = private unnamed_addr constant [29 x i8] c"unsupported config name '%s'\00", align 1

; Function Attrs: alwaysinline nounwind uwtable
define internal i32 @_Py_IsImmortal(ptr noundef %0) #4 {
  %2 = alloca ptr, align 8
  store ptr %0, ptr %2, align 8, !tbaa !3
  %3 = load ptr, ptr %2, align 8, !tbaa !3
  %4 = getelementptr inbounds nuw %struct._object, ptr %3, i32 0, i32 0
  %5 = getelementptr inbounds nuw %struct.anon, ptr %4, i32 0, i32 0
  %6 = load i32, ptr %5, align 8, !tbaa !38
  %7 = icmp slt i32 %6, 0
  %8 = zext i1 %7 to i32
  ret i32 %8
}

; Function Attrs: alwaysinline nounwind uwtable
define internal void @Py_DECREF(ptr noundef %0) #4 {
  %2 = alloca ptr, align 8
  store ptr %0, ptr %2, align 8, !tbaa !3
  %3 = load ptr, ptr %2, align 8, !tbaa !3
  %4 = call i32 @_Py_IsImmortal(ptr noundef %3)
  %5 = icmp ne i32 %4, 0
  br i1 %5, label %6, label %7

6:                                                ; preds = %1
  br label %16

7:                                                ; preds = %1
  %8 = load ptr, ptr %2, align 8, !tbaa !3
  %9 = getelementptr inbounds nuw %struct._object, ptr %8, i32 0, i32 0
  %10 = getelementptr inbounds nuw %struct.anon, ptr %9, i32 0, i32 0
  %11 = load i32, ptr %10, align 8, !tbaa !38
  %12 = add i32 %11, -1
  store i32 %12, ptr %10, align 8, !tbaa !38
  %13 = icmp eq i32 %12, 0
  br i1 %13, label %14, label %16

14:                                               ; preds = %7
  %15 = load ptr, ptr %2, align 8, !tbaa !3
  call void @_Py_Dealloc(ptr noundef %15)
  br label %16

16:                                               ; preds = %6, %14, %7
  ret void
}

; Function Attrs: inlinehint nounwind uwtable
define internal i64 @PyDict_GET_SIZE(ptr noundef %0) #3 {
  %2 = alloca ptr, align 8
  %3 = alloca ptr, align 8
  store ptr %0, ptr %2, align 8, !tbaa !3
  call void @llvm.lifetime.start.p0(i64 8, ptr %3) #8
  %4 = load ptr, ptr %2, align 8, !tbaa !3
  store ptr %4, ptr %3, align 8, !tbaa !8
  %5 = load ptr, ptr %3, align 8, !tbaa !8
  %6 = getelementptr inbounds nuw %struct.PyDictObject, ptr %5, i32 0, i32 1
  %7 = load i64, ptr %6, align 8, !tbaa !32
  call void @llvm.lifetime.end.p0(i64 8, ptr %3) #8
  ret i64 %7
}

; Function Attrs: nounwind uwtable
define internal i32 @init_named_config(ptr noundef %0, ptr noundef %1) #0 {
  %3 = alloca i32, align 4
  %4 = alloca ptr, align 8
  %5 = alloca ptr, align 8
  %6 = alloca %struct.PyInterpreterConfig, align 4
  %7 = alloca %struct.PyInterpreterConfig, align 4
  %8 = alloca %struct.PyInterpreterConfig, align 4
  store ptr %0, ptr %4, align 8, !tbaa !8
  store ptr %1, ptr %5, align 8, !tbaa !9
  %9 = load ptr, ptr %5, align 8, !tbaa !9
  %10 = icmp eq ptr %9, null
  br i1 %10, label %19, label %11

11:                                               ; preds = %2
  %12 = load ptr, ptr %5, align 8, !tbaa !9
  %13 = call i32 @strcmp(ptr noundef %12, ptr noundef @.str.21) #9
  %14 = icmp eq i32 %13, 0
  br i1 %14, label %19, label %15

15:                                               ; preds = %11
  %16 = load ptr, ptr %5, align 8, !tbaa !9
  %17 = call i32 @strcmp(ptr noundef %16, ptr noundef @.str.22) #9
  %18 = icmp eq i32 %17, 0
  br i1 %18, label %19, label %20

19:                                               ; preds = %15, %11, %2
  store ptr @.str.23, ptr %5, align 8, !tbaa !9
  br label %20

20:                                               ; preds = %19, %15
  %21 = load ptr, ptr %5, align 8, !tbaa !9
  %22 = call i32 @strcmp(ptr noundef %21, ptr noundef @.str.23) #9
  %23 = icmp eq i32 %22, 0
  br i1 %23, label %24, label %33

24:                                               ; preds = %20
  %25 = load ptr, ptr %4, align 8, !tbaa !8
  %26 = getelementptr inbounds nuw %struct.PyInterpreterConfig, ptr %6, i32 0, i32 0
  store i32 0, ptr %26, align 4, !tbaa !23
  %27 = getelementptr inbounds nuw %struct.PyInterpreterConfig, ptr %6, i32 0, i32 1
  store i32 0, ptr %27, align 4, !tbaa !25
  %28 = getelementptr inbounds nuw %struct.PyInterpreterConfig, ptr %6, i32 0, i32 2
  store i32 0, ptr %28, align 4, !tbaa !26
  %29 = getelementptr inbounds nuw %struct.PyInterpreterConfig, ptr %6, i32 0, i32 3
  store i32 1, ptr %29, align 4, !tbaa !27
  %30 = getelementptr inbounds nuw %struct.PyInterpreterConfig, ptr %6, i32 0, i32 4
  store i32 0, ptr %30, align 4, !tbaa !28
  %31 = getelementptr inbounds nuw %struct.PyInterpreterConfig, ptr %6, i32 0, i32 5
  store i32 1, ptr %31, align 4, !tbaa !29
  %32 = getelementptr inbounds nuw %struct.PyInterpreterConfig, ptr %6, i32 0, i32 6
  store i32 2, ptr %32, align 4, !tbaa !30
  call void @llvm.memcpy.p0.p0.i64(ptr align 4 %25, ptr align 4 %6, i64 28, i1 false), !tbaa.struct !31
  br label %58

33:                                               ; preds = %20
  %34 = load ptr, ptr %5, align 8, !tbaa !9
  %35 = call i32 @strcmp(ptr noundef %34, ptr noundef @.str.24) #9
  %36 = icmp eq i32 %35, 0
  br i1 %36, label %37, label %46

37:                                               ; preds = %33
  %38 = load ptr, ptr %4, align 8, !tbaa !8
  %39 = getelementptr inbounds nuw %struct.PyInterpreterConfig, ptr %7, i32 0, i32 0
  store i32 1, ptr %39, align 4, !tbaa !23
  %40 = getelementptr inbounds nuw %struct.PyInterpreterConfig, ptr %7, i32 0, i32 1
  store i32 1, ptr %40, align 4, !tbaa !25
  %41 = getelementptr inbounds nuw %struct.PyInterpreterConfig, ptr %7, i32 0, i32 2
  store i32 1, ptr %41, align 4, !tbaa !26
  %42 = getelementptr inbounds nuw %struct.PyInterpreterConfig, ptr %7, i32 0, i32 3
  store i32 1, ptr %42, align 4, !tbaa !27
  %43 = getelementptr inbounds nuw %struct.PyInterpreterConfig, ptr %7, i32 0, i32 4
  store i32 1, ptr %43, align 4, !tbaa !28
  %44 = getelementptr inbounds nuw %struct.PyInterpreterConfig, ptr %7, i32 0, i32 5
  store i32 0, ptr %44, align 4, !tbaa !29
  %45 = getelementptr inbounds nuw %struct.PyInterpreterConfig, ptr %7, i32 0, i32 6
  store i32 1, ptr %45, align 4, !tbaa !30
  call void @llvm.memcpy.p0.p0.i64(ptr align 4 %38, ptr align 4 %7, i64 28, i1 false), !tbaa.struct !31
  br label %57

46:                                               ; preds = %33
  %47 = load ptr, ptr %5, align 8, !tbaa !9
  %48 = call i32 @strcmp(ptr noundef %47, ptr noundef @.str.25) #9
  %49 = icmp eq i32 %48, 0
  br i1 %49, label %50, label %52

50:                                               ; preds = %46
  %51 = load ptr, ptr %4, align 8, !tbaa !8
  call void @llvm.memset.p0.i64(ptr align 4 %8, i8 0, i64 28, i1 false)
  call void @llvm.memcpy.p0.p0.i64(ptr align 4 %51, ptr align 4 %8, i64 28, i1 false), !tbaa.struct !31
  br label %56

52:                                               ; preds = %46
  %53 = load ptr, ptr @PyExc_ValueError, align 8, !tbaa !3
  %54 = load ptr, ptr %5, align 8, !tbaa !9
  %55 = call ptr (ptr, ptr, ...) @PyErr_Format(ptr noundef %53, ptr noundef @.str.26, ptr noundef %54)
  store i32 -1, ptr %3, align 4
  br label %59

56:                                               ; preds = %50
  br label %57

57:                                               ; preds = %56, %37
  br label %58

58:                                               ; preds = %57, %24
  store i32 0, ptr %3, align 4
  br label %59

59:                                               ; preds = %58, %52
  %60 = load i32, ptr %3, align 4
  ret i32 %60
}

; Function Attrs: nounwind uwtable
define internal ptr @interp_new_config(ptr noundef %0, ptr noundef %1, ptr noundef %2) #0 {
  %4 = alloca ptr, align 8
  %5 = alloca ptr, align 8
  %6 = alloca ptr, align 8
  %7 = alloca ptr, align 8
  %8 = alloca ptr, align 8
  %9 = alloca i32, align 4
  %10 = alloca ptr, align 8
  %11 = alloca %struct.PyInterpreterConfig, align 4
  %12 = alloca ptr, align 8
  %13 = alloca ptr, align 8
  store ptr %0, ptr %5, align 8, !tbaa !3
  store ptr %1, ptr %6, align 8, !tbaa !3
  store ptr %2, ptr %7, align 8, !tbaa !3
  call void @llvm.lifetime.start.p0(i64 8, ptr %8) #8
  store ptr null, ptr %8, align 8, !tbaa !9
  %14 = load ptr, ptr %6, align 8, !tbaa !3
  %15 = call i32 (ptr, ptr, ...) @PyArg_ParseTuple(ptr noundef %14, ptr noundef @.str.20, ptr noundef %8)
  %16 = icmp ne i32 %15, 0
  br i1 %16, label %18, label %17

17:                                               ; preds = %3
  store ptr null, ptr %4, align 8
  store i32 1, ptr %9, align 4
  br label %49

18:                                               ; preds = %3
  call void @llvm.lifetime.start.p0(i64 8, ptr %10) #8
  %19 = load ptr, ptr %7, align 8, !tbaa !3
  store ptr %19, ptr %10, align 8, !tbaa !3
  call void @llvm.lifetime.start.p0(i64 28, ptr %11) #8
  %20 = load ptr, ptr %8, align 8, !tbaa !9
  %21 = call i32 @init_named_config(ptr noundef %11, ptr noundef %20)
  %22 = icmp slt i32 %21, 0
  br i1 %22, label %23, label %24

23:                                               ; preds = %18
  store ptr null, ptr %4, align 8
  store i32 1, ptr %9, align 4
  br label %48

24:                                               ; preds = %18
  %25 = load ptr, ptr %10, align 8, !tbaa !3
  %26 = icmp ne ptr %25, null
  br i1 %26, label %27, label %37

27:                                               ; preds = %24
  %28 = load ptr, ptr %10, align 8, !tbaa !3
  %29 = call i64 @PyDict_GET_SIZE(ptr noundef %28)
  %30 = icmp sgt i64 %29, 0
  br i1 %30, label %31, label %37

31:                                               ; preds = %27
  %32 = load ptr, ptr %10, align 8, !tbaa !3
  %33 = call i32 @_PyInterpreterConfig_UpdateFromDict(ptr noundef %11, ptr noundef %32)
  %34 = icmp slt i32 %33, 0
  br i1 %34, label %35, label %36

35:                                               ; preds = %31
  store ptr null, ptr %4, align 8
  store i32 1, ptr %9, align 4
  br label %48

36:                                               ; preds = %31
  br label %37

37:                                               ; preds = %36, %27, %24
  call void @llvm.lifetime.start.p0(i64 8, ptr %12) #8
  %38 = call ptr @_PyInterpreterConfig_AsDict(ptr noundef %11)
  store ptr %38, ptr %12, align 8, !tbaa !3
  %39 = load ptr, ptr %12, align 8, !tbaa !3
  %40 = icmp eq ptr %39, null
  br i1 %40, label %41, label %42

41:                                               ; preds = %37
  store ptr null, ptr %4, align 8
  store i32 1, ptr %9, align 4
  br label %47

42:                                               ; preds = %37
  call void @llvm.lifetime.start.p0(i64 8, ptr %13) #8
  %43 = load ptr, ptr %12, align 8, !tbaa !3
  %44 = call ptr @_PyNamespace_New(ptr noundef %43)
  store ptr %44, ptr %13, align 8, !tbaa !3
  %45 = load ptr, ptr %12, align 8, !tbaa !3
  call void @Py_DECREF(ptr noundef %45)
  %46 = load ptr, ptr %13, align 8, !tbaa !3
  store ptr %46, ptr %4, align 8
  store i32 1, ptr %9, align 4
  call void @llvm.lifetime.end.p0(i64 8, ptr %13) #8
  br label %47

47:                                               ; preds = %42, %41
  call void @llvm.lifetime.end.p0(i64 8, ptr %12) #8
  br label %48

48:                                               ; preds = %47, %35, %23
  call void @llvm.lifetime.end.p0(i64 28, ptr %11) #8
  call void @llvm.lifetime.end.p0(i64 8, ptr %10) #8
  br label %49

49:                                               ; preds = %48, %17
  call void @llvm.lifetime.end.p0(i64 8, ptr %8) #8
  %50 = load ptr, ptr %4, align 8
  ret ptr %50
}