; Function Attrs: nounwind uwtable
define internal ptr @interp_new_config(ptr readnone captures(none) %0, ptr noundef %1, ptr noundef %2) #0 {
  %4 = alloca ptr, align 8
  %5 = alloca %struct.PyInterpreterConfig, align 4
  call void @llvm.lifetime.start.p0(i64 8, ptr nonnull %4) #7
  store ptr null, ptr %4, align 8, !tbaa !12
  %6 = call i32 (ptr, ptr, ...) @PyArg_ParseTuple(ptr noundef %1, ptr noundef nonnull @.str.20, ptr noundef nonnull %4) #7
  %.not = icmp eq i32 %6, 0
  br i1 %.not, label %47, label %7

7:                                                ; preds = %3
  call void @llvm.lifetime.start.p0(i64 28, ptr nonnull %5) #7
  %8 = load ptr, ptr %4, align 8, !tbaa !12
  %9 = icmp eq ptr %8, null
  br i1 %9, label %15, label %10

10:                                               ; preds = %7
  %strcmpload.i = load i8, ptr %8, align 1
  %11 = icmp eq i8 %strcmpload.i, 0
  br i1 %11, label %15, label %12

12:                                               ; preds = %10
  %13 = call i32 @strcmp(ptr noundef nonnull dereferenceable(1) %8, ptr noundef nonnull dereferenceable(8) @.str.22) #8
  %14 = icmp eq i32 %13, 0
  br i1 %14, label %15, label %16

15:                                               ; preds = %12, %10, %7
  br label %16

16:                                               ; preds = %15, %12
  %.017.i = phi ptr [ @.str.23, %15 ], [ %8, %12 ]
  %17 = call i32 @strcmp(ptr noundef nonnull dereferenceable(1) %.017.i, ptr noundef nonnull dereferenceable(9) @.str.23) #8
  %18 = icmp eq i32 %17, 0
  br i1 %18, label %19, label %20

19:                                               ; preds = %16
  store i32 0, ptr %5, align 4, !tbaa !14
  %.sroa.22.0..sroa_idx.i = getelementptr inbounds nuw i8, ptr %5, i64 4
  store i32 0, ptr %.sroa.22.0..sroa_idx.i, align 4, !tbaa !14
  %.sroa.33.0..sroa_idx.i = getelementptr inbounds nuw i8, ptr %5, i64 8
  store i32 0, ptr %.sroa.33.0..sroa_idx.i, align 4, !tbaa !14
  %.sroa.44.0..sroa_idx.i = getelementptr inbounds nuw i8, ptr %5, i64 12
  store i32 1, ptr %.sroa.44.0..sroa_idx.i, align 4, !tbaa !14
  %.sroa.55.0..sroa_idx.i = getelementptr inbounds nuw i8, ptr %5, i64 16
  store i32 0, ptr %.sroa.55.0..sroa_idx.i, align 4, !tbaa !14
  %.sroa.66.0..sroa_idx.i = getelementptr inbounds nuw i8, ptr %5, i64 20
  store i32 1, ptr %.sroa.66.0..sroa_idx.i, align 4, !tbaa !14
  %.sroa.77.0..sroa_idx.i = getelementptr inbounds nuw i8, ptr %5, i64 24
  store i32 2, ptr %.sroa.77.0..sroa_idx.i, align 4, !tbaa !14
  br label %30

20:                                               ; preds = %16
  %21 = call i32 @strcmp(ptr noundef nonnull dereferenceable(1) %.017.i, ptr noundef nonnull dereferenceable(7) @.str.24) #8
  %22 = icmp eq i32 %21, 0
  br i1 %22, label %23, label %24

23:                                               ; preds = %20
  store i32 1, ptr %5, align 4, !tbaa !14
  %.sroa.2.0..sroa_idx.i = getelementptr inbounds nuw i8, ptr %5, i64 4
  store i32 1, ptr %.sroa.2.0..sroa_idx.i, align 4, !tbaa !14
  %.sroa.3.0..sroa_idx.i = getelementptr inbounds nuw i8, ptr %5, i64 8
  store i32 1, ptr %.sroa.3.0..sroa_idx.i, align 4, !tbaa !14
  %.sroa.4.0..sroa_idx.i = getelementptr inbounds nuw i8, ptr %5, i64 12
  store i32 1, ptr %.sroa.4.0..sroa_idx.i, align 4, !tbaa !14
  %.sroa.5.0..sroa_idx.i = getelementptr inbounds nuw i8, ptr %5, i64 16
  store i32 1, ptr %.sroa.5.0..sroa_idx.i, align 4, !tbaa !14
  %.sroa.6.0..sroa_idx.i = getelementptr inbounds nuw i8, ptr %5, i64 20
  store i32 0, ptr %.sroa.6.0..sroa_idx.i, align 4, !tbaa !14
  %.sroa.7.0..sroa_idx.i = getelementptr inbounds nuw i8, ptr %5, i64 24
  store i32 1, ptr %.sroa.7.0..sroa_idx.i, align 4, !tbaa !14
  br label %30

24:                                               ; preds = %20
  %25 = call i32 @strcmp(ptr noundef nonnull dereferenceable(1) %.017.i, ptr noundef nonnull dereferenceable(6) @.str.25) #8
  %26 = icmp eq i32 %25, 0
  br i1 %26, label %27, label %init_named_config.exit

27:                                               ; preds = %24
  call void @llvm.memset.p0.i64(ptr noundef nonnull align 4 dereferenceable(28) %5, i8 0, i64 28, i1 false)
  br label %30

init_named_config.exit:                           ; preds = %24
  %28 = load ptr, ptr @PyExc_ValueError, align 8, !tbaa !15
  %29 = call ptr (ptr, ptr, ...) @PyErr_Format(ptr noundef %28, ptr noundef nonnull @.str.26, ptr noundef nonnull %.017.i) #7
  br label %Py_DECREF.exit

30:                                               ; preds = %23, %27, %19
  %.not12 = icmp eq ptr %2, null
  br i1 %.not12, label %37, label %31

31:                                               ; preds = %30
  %32 = getelementptr i8, ptr %2, i64 16
  %.val = load i64, ptr %32, align 8, !tbaa !17
  %33 = icmp sgt i64 %.val, 0
  br i1 %33, label %34, label %37

34:                                               ; preds = %31
  %35 = call i32 @_PyInterpreterConfig_UpdateFromDict(ptr noundef nonnull %5, ptr noundef nonnull %2) #7
  %36 = icmp slt i32 %35, 0
  br i1 %36, label %Py_DECREF.exit, label %37

37:                                               ; preds = %34, %31, %30
  %38 = call ptr @_PyInterpreterConfig_AsDict(ptr noundef nonnull %5) #7
  %39 = icmp eq ptr %38, null
  br i1 %39, label %Py_DECREF.exit, label %40

40:                                               ; preds = %37
  %41 = call ptr @_PyNamespace_New(ptr noundef nonnull %38) #7
  %42 = load i32, ptr %38, align 8, !tbaa !11
  %.not.i = icmp sgt i32 %42, -1
  br i1 %.not.i, label %43, label %Py_DECREF.exit

43:                                               ; preds = %40
  %44 = add nsw i32 %42, -1
  store i32 %44, ptr %38, align 8, !tbaa !11
  %45 = icmp eq i32 %44, 0
  br i1 %45, label %46, label %Py_DECREF.exit

46:                                               ; preds = %43
  call void @_Py_Dealloc(ptr noundef nonnull %38) #7
  br label %Py_DECREF.exit

Py_DECREF.exit:                                   ; preds = %46, %43, %40, %init_named_config.exit, %37, %34
  %.1 = phi ptr [ null, %init_named_config.exit ], [ null, %34 ], [ null, %37 ], [ %41, %40 ], [ %41, %43 ], [ %41, %46 ]
  call void @llvm.lifetime.end.p0(i64 28, ptr nonnull %5) #7
  br label %47

47:                                               ; preds = %3, %Py_DECREF.exit
  %.0 = phi ptr [ %.1, %Py_DECREF.exit ], [ null, %3 ]
  call void @llvm.lifetime.end.p0(i64 8, ptr nonnull %4) #7
  ret ptr %.0
}